; Function Attrs: mustprogress nofree norecurse nosync nounwind willreturn memory(readwrite, inaccessiblemem: none) uwtable
define internal void @plpgsql_param_eval_var(ptr readnone captures(none) %0, ptr noundef readonly captures(none) %1, ptr noundef readonly captures(none) %2) #10 {
  %4 = getelementptr inbounds nuw i8, ptr %1, i64 48
  %5 = load i32, ptr %4, align 8
  %6 = add i32 %5, -1
  %7 = getelementptr inbounds nuw i8, ptr %2, i64 56
  %8 = load ptr, ptr %7, align 8
  %9 = getelementptr inbounds nuw i8, ptr %8, i64 8
  %10 = load ptr, ptr %9, align 8
  %11 = getelementptr inbounds nuw i8, ptr %10, i64 112
  %12 = load ptr, ptr %11, align 8
  %13 = sext i32 %6 to i64
  %14 = getelementptr inbounds ptr, ptr %12, i64 %13
  %15 = load ptr, ptr %14, align 8
  %16 = getelementptr inbounds nuw i8, ptr %15, i64 56
  %17 = load i64, ptr %16, align 8
  %18 = getelementptr inbounds nuw i8, ptr %1, i64 8
  %19 = load ptr, ptr %18, align 8
  store i64 %17, ptr %19, align 8
  %20 = getelementptr inbounds nuw i8, ptr %15, i64 64
  %21 = load i8, ptr %20, align 8, !range !3, !noundef !4
  %22 = getelementptr inbounds nuw i8, ptr %1, i64 16
  %23 = load ptr, ptr %22, align 8
  store i8 %21, ptr %23, align 1
  ret void
}